Certificate:
    Data:
        Version: 3 (0x2)
        Serial Number: 4096 (0x1000)
    Signature Algorithm: sha512WithRSAEncryption
        Issuer: C=CA, O=Viz Software, OU=Certificate Authority, CN=Viz Root X1
        Validity
            Not Before: Sep 26 08:29:46 2016 GMT
            Not After : Sep 25 08:29:46 2021 GMT
        Subject: C=CA, O=Viz Software, OU=Certificate Authority, CN=Viz Authority X1
        Subject Public Key Info:
            Public Key Algorithm: rsaEncryption
                Public-Key: (4096 bit)
                Modulus:
                    00:cc:d7:ff:71:70:6d:58:b3:9d:3b:87:a1:2c:f7:
                    8a:10:d1:bb:fa:37:37:f5:e7:44:0e:53:ab:4a:bd:
                    dd:4b:70:c8:bb:ea:d5:99:0d:23:14:44:5c:86:ca:
                    67:21:f1:c9:9d:d0:9e:72:ee:17:ff:3b:12:d5:4f:
                    54:7f:51:fe:4a:fb:a2:67:63:78:80:89:ee:2e:d4:
                    0c:af:6b:e9:00:a7:82:ec:55:43:a8:1d:84:ad:dd:
                    af:ec:ba:03:40:ea:34:01:ca:67:2a:4f:cf:02:8f:
                    83:18:e7:95:5c:a2:05:e8:52:03:0f:96:f1:ab:29:
                    b0:76:8f:c2:6e:76:6c:54:62:01:df:fc:5e:b3:ce:
                    bd:30:a6:c5:72:d5:1d:82:8f:3b:ea:16:e3:fe:a4:
                    c8:da:e2:05:57:c9:b4:cd:09:eb:d2:ef:70:9e:41:
                    4e:77:7d:5a:04:be:38:23:9b:7b:41:39:f2:07:d5:
                    aa:e7:c7:88:f2:a8:05:29:86:80:9e:44:f2:30:15:
                    95:fb:b6:96:dd:6c:fd:f3:d7:31:f8:64:28:4b:d5:
                    d0:5d:e2:ad:91:6b:70:91:4c:1e:a8:b6:2d:ac:d2:
                    d5:af:5f:e1:0c:cb:7d:06:95:73:ff:b9:fb:ee:42:
                    ca:b8:e8:b8:76:50:71:a8:a5:05:75:fd:13:c0:2f:
                    12:ef:c7:f6:cb:fd:d2:25:b5:db:2f:9a:1c:c8:ee:
                    d8:ac:bd:64:26:16:79:79:23:8b:cb:c8:9c:da:5b:
                    41:0c:fa:57:88:04:04:36:30:a7:cd:77:f6:21:7a:
                    62:a9:7a:31:00:37:7d:2d:af:4d:23:b2:63:99:7d:
                    dd:7a:36:f6:61:8a:09:15:0d:e3:ad:f3:df:82:fd:
                    30:03:5a:cc:ea:da:5b:58:7d:4f:26:ec:4c:09:ca:
                    77:ce:13:16:f4:4c:f2:89:6f:e1:45:90:f8:4d:e2:
                    03:aa:71:1f:1e:5c:7d:2d:3c:6c:47:2f:61:ff:6b:
                    4f:01:4e:2a:d4:75:76:05:e0:92:3a:10:55:66:5d:
                    b3:d7:b9:c6:b1:d1:d5:15:c6:f1:68:21:de:8c:3a:
                    73:2a:78:aa:d5:86:f4:cb:1a:bf:6d:ad:d8:2d:ce:
                    92:24:60:20:ef:a6:c7:cc:89:6f:af:9a:57:9d:d6:
                    14:cf:13:f9:dc:86:50:9c:3f:41:95:c4:f3:33:67:
                    fd:6f:18:e1:9c:bb:8a:8f:50:36:12:aa:b0:98:d7:
                    89:aa:cc:80:fa:17:87:86:83:2e:66:2c:40:bd:c0:
                    6e:d5:f8:f0:75:3c:7e:d2:10:c3:40:81:f1:f5:52:
                    82:9c:94:48:9c:29:09:a5:04:7a:46:a8:94:2d:9e:
                    89:e0:c1
                Exponent: 65537 (0x10001)
        X509v3 extensions:
            X509v3 Key Usage: critical
                Digital Signature, Certificate Sign, CRL Sign
            X509v3 Basic Constraints: critical
                CA:TRUE, pathlen:0
            X509v3 Certificate Policies: 
                Policy: X509v3 Any Policy
                  CPS: http://csp.root-x1.ca.viz.software

            X509v3 Subject Key Identifier: 
                61:29:40:28:22:E2:63:9D:3C:E4:C2:44:94:32:C9:63:00:46:3B:52
            X509v3 CRL Distribution Points: 

                Full Name:
                  URI:http://crl.root-x1.ca.viz.software

            Authority Information Access: 
                OCSP - URI:http://ocsp.root-x1.ca.viz.software/
                CA Issuers - URI:http://cert.root-x1.ca.viz.software/

            X509v3 Authority Key Identifier: 
                keyid:18:F0:E0:95:C7:E6:C9:33:A1:B5:CB:DE:33:11:5E:C8:FE:25:9F:B4

    Signature Algorithm: sha512WithRSAEncryption
         2e:38:9d:ee:0e:dd:61:70:eb:a1:38:23:19:d5:44:ef:d5:6d:
         3b:25:28:fb:f2:cb:29:2f:b3:a5:ca:81:63:b3:61:67:59:92:
         c2:65:6c:de:41:64:17:c6:0b:82:c3:f9:bd:3c:44:1a:f1:14:
         b2:ac:68:af:0b:97:41:6e:c1:e8:89:30:8f:46:9d:86:d6:8c:
         b0:f0:69:11:f5:20:be:a1:79:33:aa:83:4c:26:6b:86:e3:54:
         ab:f9:ef:40:d3:23:d2:36:7c:7f:a5:e4:a7:b9:15:68:fe:36:
         df:02:e1:e9:89:f1:77:40:5e:51:8b:95:ab:cc:1b:f7:60:90:
         eb:3b:ab:42:c4:b8:f3:a3:03:2d:6c:8d:3d:46:71:13:2c:e6:
         15:a7:8b:cb:a8:a3:1f:85:cf:8b:24:41:08:14:75:dc:96:9c:
         1b:d3:a3:68:ed:eb:55:69:73:71:1f:c7:82:4c:f2:c8:bc:3a:
         1e:68:fc:32:25:d3:72:9a:4c:c8:cc:37:a8:ae:40:bb:6a:33:
         92:16:5a:df:ac:c7:0d:71:fe:60:54:d7:4f:b3:80:67:ba:a7:
         0f:84:69:d2:ef:d8:38:7e:1e:41:ca:40:b7:a2:fb:88:d0:55:
         64:77:1d:ed:9e:5c:89:dc:e4:11:c1:be:f8:1c:71:27:c7:bf:
         63:bd:af:3c:c9:7b:66:3a:88:71:b6:71:c6:a7:92:eb:de:f8:
         dd:60:13:c0:80:b2:b1:82:9b:c9:6c:b8:80:22:74:df:b8:44:
         4c:44:48:24:71:8f:a2:30:98:c6:1d:3d:64:df:92:9a:93:16:
         20:87:f3:13:c2:1f:df:cb:52:f6:94:71:76:69:70:62:41:c4:
         a1:51:f3:d9:90:f9:3b:97:82:7f:97:21:56:58:9a:cf:a4:43:
         6b:1d:09:df:80:ad:96:e8:d8:44:c0:cf:17:45:05:fb:3d:b6:
         00:c8:12:ea:77:eb:c5:ff:5e:87:27:a5:88:de:96:e1:ce:57:
         ee:be:bd:29:8e:b8:44:d8:a4:4d:e3:76:54:1a:18:c4:ea:e0:
         80:5e:cd:dc:f4:98:e4:d0:2e:99:da:e5:88:10:9b:5b:44:df:
         12:8e:83:3b:58:42:92:ac:c7:2d:1e:e7:7b:eb:82:6a:3b:fa:
         38:73:ff:6f:47:ea:ea:52:aa:f8:ba:61:34:96:ab:01:e3:8d:
         46:b2:ee:09:1d:68:27:85:52:78:40:46:2f:1a:6f:59:70:68:
         16:4c:a0:6e:b5:ce:bc:e7:59:cd:45:49:ab:01:7a:d5:1d:7a:
         c4:98:7f:1e:71:48:8b:2b:3c:f1:2b:ee:1c:9d:9e:98:4e:c1:
         a9:72:8d:6c:fc:e9:9f:e7
-----BEGIN CERTIFICATE-----
MIIGjTCCBHWgAwIBAgICEAAwDQYJKoZIhvcNAQENBQAwWjELMAkGA1UEBhMCQ0Ex
FTATBgNVBAoMDFZpeiBTb2Z0d2FyZTEeMBwGA1UECwwVQ2VydGlmaWNhdGUgQXV0
aG9yaXR5MRQwEgYDVQQDDAtWaXogUm9vdCBYMTAeFw0xNjA5MjYwODI5NDZaFw0y
MTA5MjUwODI5NDZaMF8xCzAJBgNVBAYTAkNBMRUwEwYDVQQKDAxWaXogU29mdHdh
cmUxHjAcBgNVBAsMFUNlcnRpZmljYXRlIEF1dGhvcml0eTEZMBcGA1UEAwwQVml6
IEF1dGhvcml0eSBYMTCCAiIwDQYJKoZIhvcNAQEBBQADggIPADCCAgoCggIBAMzX
/3FwbViznTuHoSz3ihDRu/o3N/XnRA5Tq0q93UtwyLvq1ZkNIxREXIbKZyHxyZ3Q
nnLuF/87EtVPVH9R/kr7omdjeICJ7i7UDK9r6QCnguxVQ6gdhK3dr+y6A0DqNAHK
ZypPzwKPgxjnlVyiBehSAw+W8aspsHaPwm52bFRiAd/8XrPOvTCmxXLVHYKPO+oW
4/6kyNriBVfJtM0J69LvcJ5BTnd9WgS+OCObe0E58gfVqufHiPKoBSmGgJ5E8jAV
lfu2lt1s/fPXMfhkKEvV0F3irZFrcJFMHqi2LazS1a9f4QzLfQaVc/+5++5Cyrjo
uHZQcailBXX9E8AvEu/H9sv90iW12y+aHMju2Ky9ZCYWeXkji8vInNpbQQz6V4gE
BDYwp8139iF6Yql6MQA3fS2vTSOyY5l93Xo29mGKCRUN463z34L9MANazOraW1h9
TybsTAnKd84TFvRM8olv4UWQ+E3iA6pxHx5cfS08bEcvYf9rTwFOKtR1dgXgkjoQ
VWZds9e5xrHR1RXG8Wgh3ow6cyp4qtWG9Msav22t2C3OkiRgIO+mx8yJb6+aV53W
FM8T+dyGUJw/QZXE8zNn/W8Y4Zy7io9QNhKqsJjXiarMgPoXh4aDLmYsQL3AbtX4
8HU8ftIQw0CB8fVSgpyUSJwpCaUEekaolC2eieDBAgMBAAGjggFWMIIBUjAOBgNV
HQ8BAf8EBAMCAYYwEgYDVR0TAQH/BAgwBgEB/wIBADBDBgNVHSAEPDA6MDgGBFUd
IAAwMDAuBggrBgEFBQcCARYiaHR0cDovL2NzcC5yb290LXgxLmNhLnZpei5zb2Z0
d2FyZTAdBgNVHQ4EFgQUYSlAKCLiY5085MJElDLJYwBGO1IwMwYDVR0fBCwwKjAo
oCagJIYiaHR0cDovL2NybC5yb290LXgxLmNhLnZpei5zb2Z0d2FyZTByBggrBgEF
BQcBAQRmMGQwMAYIKwYBBQUHMAGGJGh0dHA6Ly9vY3NwLnJvb3QteDEuY2Eudml6
LnNvZnR3YXJlLzAwBggrBgEFBQcwAoYkaHR0cDovL2NlcnQucm9vdC14MS5jYS52
aXouc29mdHdhcmUvMB8GA1UdIwQYMBaAFBjw4JXH5skzobXL3jMRXsj+JZ+0MA0G
CSqGSIb3DQEBDQUAA4ICAQAuOJ3uDt1hcOuhOCMZ1UTv1W07JSj78sspL7OlyoFj
s2FnWZLCZWzeQWQXxguCw/m9PEQa8RSyrGivC5dBbsHoiTCPRp2G1oyw8GkR9SC+
oXkzqoNMJmuG41Sr+e9A0yPSNnx/peSnuRVo/jbfAuHpifF3QF5Ri5WrzBv3YJDr
O6tCxLjzowMtbI09RnETLOYVp4vLqKMfhc+LJEEIFHXclpwb06No7etVaXNxH8eC
TPLIvDoeaPwyJdNymkzIzDeorkC7ajOSFlrfrMcNcf5gVNdPs4BnuqcPhGnS79g4
fh5BykC3ovuI0FVkdx3tnlyJ3OQRwb74HHEnx79jva88yXtmOohxtnHGp5Lr3vjd
YBPAgLKxgpvJbLiAInTfuERMREgkcY+iMJjGHT1k35KakxYgh/MTwh/fy1L2lHF2
aXBiQcShUfPZkPk7l4J/lyFWWJrPpENrHQnfgK2W6NhEwM8XRQX7PbYAyBLqd+vF
/16HJ6WI3pbhzlfuvr0pjrhE2KRN43ZUGhjE6uCAXs3c9Jjk0C6Z2uWIEJtbRN8S
joM7WEKSrMctHud764JqO/o4c/9vR+rqUqr4umE0lqsB441Gsu4JHWgnhVJ4QEYv
Gm9ZcGgWTKButc6851nNRUmrAXrVHXrEmH8ecUiLKzzxK+4cnZ6YTsGpco1s/Omf
5w==
-----END CERTIFICATE-----
